; Function Attrs: nounwind uwtable
define range(i32 -1, 1) i32 @H5CX_get_ohdr_flags(ptr nocapture noundef writeonly %0) local_unnamed_addr #0 {
  %2 = load ptr, ptr @H5CX_head_g, align 8
  %3 = getelementptr inbounds i8, ptr %2, i64 380
  %4 = load i8, ptr %3, align 4
  %5 = trunc i8 %4 to i1
  br i1 %5, label %40, label %6

6:                                                ; preds = %1
  %7 = getelementptr inbounds i8, ptr %2, i64 48
  %8 = load i64, ptr %7, align 8
  %9 = load i64, ptr @H5P_LST_DATASET_CREATE_ID_g, align 8
  %10 = icmp eq i64 %8, %9
  br i1 %10, label %11, label %14

11:                                               ; preds = %6
  %12 = getelementptr inbounds i8, ptr %2, i64 379
  %13 = load i8, ptr getelementptr inbounds (i8, ptr @H5CX_def_dcpl_cache, i64 1), align 1
  store i8 %13, ptr %12, align 1
  br label %37

14:                                               ; preds = %6
  %15 = getelementptr inbounds i8, ptr %2, i64 56
  %16 = load ptr, ptr %15, align 8
  %17 = icmp eq ptr %16, null
  br i1 %17, label %18, label %27

18:                                               ; preds = %14
  %19 = tail call ptr @H5I_object(i64 noundef %8) #13
  %20 = load ptr, ptr @H5CX_head_g, align 8
  %21 = getelementptr inbounds i8, ptr %20, i64 56
  store ptr %19, ptr %21, align 8
  %22 = icmp eq ptr %19, null
  br i1 %22, label %23, label %27

23:                                               ; preds = %18
  %24 = load i64, ptr @H5E_CONTEXT_g, align 8
  %25 = load i64, ptr @H5E_BADTYPE_g, align 8
  %26 = tail call i32 (ptr, ptr, i32, i64, i64, ptr, ...) @H5E_printf_stack(ptr noundef nonnull @.str, ptr noundef nonnull @__func__.H5CX_get_ohdr_flags, i32 noundef 3607, i64 noundef %24, i64 noundef %25, ptr noundef nonnull @.str.56) #13
  br label %44

27:                                               ; preds = %18, %14
  %28 = phi ptr [ %19, %18 ], [ %16, %14 ]
  %29 = phi ptr [ %20, %18 ], [ %2, %14 ]
  %30 = getelementptr inbounds i8, ptr %29, i64 379
  %31 = tail call i32 @H5P_get(ptr noundef nonnull %28, ptr noundef nonnull @.str.46, ptr noundef nonnull %30) #13
  %32 = icmp slt i32 %31, 0
  br i1 %32, label %33, label %._crit_edge

._crit_edge:                                      ; preds = %27
  %.pre = load ptr, ptr @H5CX_head_g, align 8
  br label %37

33:                                               ; preds = %27
  %34 = load i64, ptr @H5E_CONTEXT_g, align 8
  %35 = load i64, ptr @H5E_CANTGET_g, align 8
  %36 = tail call i32 (ptr, ptr, i32, i64, i64, ptr, ...) @H5E_printf_stack(ptr noundef nonnull @.str, ptr noundef nonnull @__func__.H5CX_get_ohdr_flags, i32 noundef 3607, i64 noundef %34, i64 noundef %35, ptr noundef nonnull @.str.75) #13
  br label %44

37:                                               ; preds = %._crit_edge, %11
  %38 = phi ptr [ %.pre, %._crit_edge ], [ %2, %11 ]
  %39 = getelementptr inbounds i8, ptr %38, i64 380
  store i8 1, ptr %39, align 4
  br label %40

40:                                               ; preds = %37, %1
  %41 = phi ptr [ %38, %37 ], [ %2, %1 ]
  %42 = getelementptr inbounds i8, ptr %41, i64 379
  %43 = load i8, ptr %42, align 1
  store i8 %43, ptr %0, align 1
  br label %44

44:                                               ; preds = %40, %33, %23
  %.0 = phi i32 [ 0, %40 ], [ -1, %23 ], [ -1, %33 ]
  ret i32 %.0
}